target datalayout = "e-m:e-p270:32:32-p271:32:32-p272:64:64-i64:64-i128:128-f80:128-n8:16:32:64-S128"
target triple = "x86_64-pc-linux-gnu"

%struct.Abc_Frame_t_ = type { ptr, ptr, ptr, ptr, ptr, ptr, ptr, ptr, ptr, ptr, i32, i32, i32, i32, i32, ptr, float, float, i32, i32, ptr, ptr, ptr, double, double, ptr, ptr, ptr, ptr, ptr, ptr, ptr, ptr, ptr, ptr, ptr, ptr, float, ptr, i32, ptr, ptr, ptr, ptr, ptr, i32, i32, i32, i32, i32, i32, ptr, ptr, ptr, ptr, ptr, ptr, i32, i32, ptr, ptr, ptr, ptr, ptr, ptr, ptr, ptr, ptr, ptr, ptr, ptr, ptr, ptr, ptr, ptr, ptr, ptr, ptr, ptr, ptr, ptr, ptr, ptr, ptr, ptr, ptr, ptr, ptr, ptr }

@.str.41 = private unnamed_addr constant [4 x i8] c"yes\00", align 1
@.str.42 = private unnamed_addr constant [3 x i8] c"no\00", align 1
@.str.45 = private unnamed_addr constant [62 x i8] c"\09-v     : toggle printing verbose information [default = %s]\0A\00", align 1
@.str.46 = private unnamed_addr constant [35 x i8] c"\09-h     : print the command usage\0A\00", align 1
@.str.162 = private unnamed_addr constant [3 x i8] c"vh\00", align 1
@.str.200 = private unnamed_addr constant [66 x i8] c"\09         (AIG representing the design should be in the &-space)\0A\00", align 1
@.str.210 = private unnamed_addr constant [50 x i8] c"Abc_CommandInvPut(): There is no current design.\0A\00", align 1
@.str.211 = private unnamed_addr constant [47 x i8] c"Abc_CommandInvPut(): There is no current AIG.\0A\00", align 1
@.str.212 = private unnamed_addr constant [22 x i8] c"usage: inv_put [-vh]\0A\00", align 1
@.str.213 = private unnamed_addr constant [72 x i8] c"\09         inputs the current network in the main-space as an invariant\0A\00", align 1

; Function Attrs: nounwind uwtable
define internal i32 @Abc_CommandInvPut(ptr noundef %0, i32 noundef %1, ptr noundef %2) #0 {
  %4 = alloca i32, align 4
  %5 = alloca ptr, align 8
  %6 = alloca i32, align 4
  %7 = alloca ptr, align 8
  %8 = alloca ptr, align 8
  %9 = alloca ptr, align 8
  %10 = alloca i32, align 4
  %11 = alloca i32, align 4
  %12 = alloca i32, align 4
  store ptr %0, ptr %5, align 8, !tbaa !3
  store i32 %1, ptr %6, align 4, !tbaa !8
  store ptr %2, ptr %7, align 8, !tbaa !10
  call void @llvm.lifetime.start.p0(i64 8, ptr %8) #12
  store ptr null, ptr %8, align 8, !tbaa !111
  call void @llvm.lifetime.start.p0(i64 8, ptr %9) #12
  %13 = load ptr, ptr %5, align 8, !tbaa !3
  %14 = call ptr @Abc_FrameReadNtk(ptr noundef %13)
  store ptr %14, ptr %9, align 8, !tbaa !129
  call void @llvm.lifetime.start.p0(i64 4, ptr %10) #12
  call void @llvm.lifetime.start.p0(i64 4, ptr %11) #12
  store i32 0, ptr %11, align 4, !tbaa !8
  call void (...) @Extra_UtilGetoptReset()
  br label %15

15:                                               ; preds = %27, %3
  %16 = load i32, ptr %6, align 4, !tbaa !8
  %17 = load ptr, ptr %7, align 8, !tbaa !10
  %18 = call i32 @Extra_UtilGetopt(i32 noundef %16, ptr noundef %17, ptr noundef @.str.162)
  store i32 %18, ptr %10, align 4, !tbaa !8
  %19 = icmp ne i32 %18, -1
  br i1 %19, label %20, label %28

20:                                               ; preds = %15
  %21 = load i32, ptr %10, align 4, !tbaa !8
  switch i32 %21, label %26 [
    i32 118, label %22
    i32 104, label %25
  ]

22:                                               ; preds = %20
  %23 = load i32, ptr %11, align 4, !tbaa !8
  %24 = xor i32 %23, 1
  store i32 %24, ptr %11, align 4, !tbaa !8
  br label %27

25:                                               ; preds = %20
  br label %49

26:                                               ; preds = %20
  br label %49

27:                                               ; preds = %22
  br label %15, !llvm.loop !130

28:                                               ; preds = %15
  %29 = load ptr, ptr %9, align 8, !tbaa !129
  %30 = icmp eq ptr %29, null
  br i1 %30, label %31, label %32

31:                                               ; preds = %28
  call void (i32, ptr, ...) @Abc_Print(i32 noundef 1, ptr noundef @.str.210)
  store i32 0, ptr %4, align 4
  store i32 1, ptr %12, align 4
  br label %53

32:                                               ; preds = %28
  %33 = load ptr, ptr %5, align 8, !tbaa !3
  %34 = getelementptr inbounds nuw %struct.Abc_Frame_t_, ptr %33, i32 0, i32 40
  %35 = load ptr, ptr %34, align 8, !tbaa !20
  %36 = icmp eq ptr %35, null
  br i1 %36, label %37, label %38

37:                                               ; preds = %32
  call void (i32, ptr, ...) @Abc_Print(i32 noundef 1, ptr noundef @.str.211)
  store i32 0, ptr %4, align 4
  store i32 1, ptr %12, align 4
  br label %53

38:                                               ; preds = %32
  %39 = load ptr, ptr %9, align 8, !tbaa !129
  %40 = load ptr, ptr %5, align 8, !tbaa !3
  %41 = getelementptr inbounds nuw %struct.Abc_Frame_t_, ptr %40, i32 0, i32 40
  %42 = load ptr, ptr %41, align 8, !tbaa !20
  %43 = call ptr @Wlc_NtkGetPut(ptr noundef %39, ptr noundef %42)
  store ptr %43, ptr %8, align 8, !tbaa !111
  %44 = load ptr, ptr %8, align 8, !tbaa !111
  %45 = icmp ne ptr %44, null
  br i1 %45, label %46, label %48

46:                                               ; preds = %38
  %47 = load ptr, ptr %8, align 8, !tbaa !111
  call void @Abc_FrameSetInv(ptr noundef %47)
  br label %48

48:                                               ; preds = %46, %38
  store i32 0, ptr %4, align 4
  store i32 1, ptr %12, align 4
  br label %53

49:                                               ; preds = %26, %25
  call void (i32, ptr, ...) @Abc_Print(i32 noundef -2, ptr noundef @.str.212)
  call void (i32, ptr, ...) @Abc_Print(i32 noundef -2, ptr noundef @.str.213)
  call void (i32, ptr, ...) @Abc_Print(i32 noundef -2, ptr noundef @.str.200)
  %50 = load i32, ptr %11, align 4, !tbaa !8
  %51 = icmp ne i32 %50, 0
  %52 = select i1 %51, ptr @.str.41, ptr @.str.42
  call void (i32, ptr, ...) @Abc_Print(i32 noundef -2, ptr noundef @.str.45, ptr noundef %52)
  call void (i32, ptr, ...) @Abc_Print(i32 noundef -2, ptr noundef @.str.46)
  store i32 1, ptr %4, align 4
  store i32 1, ptr %12, align 4
  br label %53

53:                                               ; preds = %49, %48, %37, %31
  call void @llvm.lifetime.end.p0(i64 4, ptr %11) #12
  call void @llvm.lifetime.end.p0(i64 4, ptr %10) #12
  call void @llvm.lifetime.end.p0(i64 8, ptr %9) #12
  call void @llvm.lifetime.end.p0(i64 8, ptr %8) #12
  %54 = load i32, ptr %4, align 4
  ret i32 %54
}