; Function Attrs: nounwind uwtable
define internal range(i32 0, 2) i32 @Abc_CommandInvPut(ptr noundef %0, i32 noundef %1, ptr noundef %2) #0 {
  %4 = tail call ptr @Abc_FrameReadNtk(ptr noundef %0) #17
  tail call void (...) @Extra_UtilGetoptReset() #17
  br label %5

5:                                                ; preds = %7, %3
  %.0 = phi i32 [ 0, %3 ], [ %8, %7 ]
  %6 = tail call i32 @Extra_UtilGetopt(i32 noundef %1, ptr noundef %2, ptr noundef nonnull @.str.162) #17
  switch i32 %6, label %20 [
    i32 -1, label %9
    i32 118, label %7
  ]

7:                                                ; preds = %5
  %8 = xor i32 %.0, 1
  br label %5, !llvm.loop !119

9:                                                ; preds = %5
  %10 = icmp eq ptr %4, null
  br i1 %10, label %11, label %12

11:                                               ; preds = %9
  tail call void (i32, ptr, ...) @Abc_Print(i32 noundef 1, ptr noundef nonnull @.str.210)
  br label %22

12:                                               ; preds = %9
  %13 = getelementptr inbounds nuw i8, ptr %0, i64 288
  %14 = load ptr, ptr %13, align 8, !tbaa !12
  %15 = icmp eq ptr %14, null
  br i1 %15, label %16, label %17

16:                                               ; preds = %12
  tail call void (i32, ptr, ...) @Abc_Print(i32 noundef 1, ptr noundef nonnull @.str.211)
  br label %22

17:                                               ; preds = %12
  %18 = tail call ptr @Wlc_NtkGetPut(ptr noundef nonnull %4, ptr noundef nonnull %14) #17
  %.not17 = icmp eq ptr %18, null
  br i1 %.not17, label %22, label %19

19:                                               ; preds = %17
  tail call void @Abc_FrameSetInv(ptr noundef nonnull %18) #17
  br label %22

20:                                               ; preds = %5
  tail call void (i32, ptr, ...) @Abc_Print(i32 noundef -2, ptr noundef nonnull @.str.212)
  tail call void (i32, ptr, ...) @Abc_Print(i32 noundef -2, ptr noundef nonnull @.str.213)
  tail call void (i32, ptr, ...) @Abc_Print(i32 noundef -2, ptr noundef nonnull @.str.200)
  %.not18 = icmp eq i32 %.0, 0
  %21 = select i1 %.not18, ptr @.str.42, ptr @.str.41
  tail call void (i32, ptr, ...) @Abc_Print(i32 noundef -2, ptr noundef nonnull @.str.45, ptr noundef nonnull %21)
  tail call void (i32, ptr, ...) @Abc_Print(i32 noundef -2, ptr noundef nonnull @.str.46)
  br label %22

22:                                               ; preds = %17, %19, %20, %16, %11
  %.012 = phi i32 [ 1, %20 ], [ 0, %11 ], [ 0, %16 ], [ 0, %19 ], [ 0, %17 ]
  ret i32 %.012
}